target datalayout = "e-m:e-p270:32:32-p271:32:32-p272:64:64-i64:64-i128:128-f80:128-n8:16:32:64-S128"
target triple = "x86_64-pc-linux-gnu"

%struct.mi_stats_s = type { %struct.mi_stat_count_s, %struct.mi_stat_count_s, %struct.mi_stat_count_s, %struct.mi_stat_count_s, %struct.mi_stat_count_s, %struct.mi_stat_count_s, %struct.mi_stat_count_s, %struct.mi_stat_count_s, %struct.mi_stat_count_s, %struct.mi_stat_count_s, %struct.mi_stat_count_s, %struct.mi_stat_count_s, %struct.mi_stat_count_s, %struct.mi_stat_count_s, %struct.mi_stat_count_s, %struct.mi_stat_counter_s, %struct.mi_stat_counter_s, %struct.mi_stat_counter_s, %struct.mi_stat_counter_s, %struct.mi_stat_counter_s, %struct.mi_stat_counter_s, %struct.mi_stat_counter_s, %struct.mi_stat_counter_s, %struct.mi_stat_counter_s, %struct.mi_stat_counter_s, %struct.mi_stat_counter_s, %struct.mi_stat_counter_s, %struct.mi_stat_counter_s, %struct.mi_stat_counter_s }
%struct.mi_stat_count_s = type { i64, i64, i64, i64 }
%struct.mi_stat_counter_s = type { i64, i64 }
%struct.mi_heap_s = type { ptr, ptr, i64, i32, i64, [2 x i64], %struct.mi_random_cxt_s, i64, i64, i64, ptr, i8, i8, [129 x ptr], [75 x %struct.mi_page_queue_s] }
%struct.mi_random_cxt_s = type { [16 x i32], [16 x i32], i32, i8 }
%struct.mi_page_queue_s = type { ptr, ptr, i64 }
%struct.mi_tld_s = type { i64, i8, ptr, ptr, %struct.mi_segments_tld_s, %struct.mi_stats_s }
%struct.mi_segments_tld_s = type { [36 x %struct.mi_span_queue_s], i64, i64, i64, i64, i64, ptr, ptr }
%struct.mi_span_queue_s = type { ptr, ptr, i64 }

@_mi_stats_main = external global %struct.mi_stats_s, align 64
@mi_process_start = internal global i64 0, align 8
@mi_clock_diff = internal global i64 0, align 8

; Function Attrs: nounwind uwtable
define hidden i64 @_mi_clock_now() #0 {
  %1 = call i64 @_mi_prim_clock_now() #6
  ret i64 %1
}

; Function Attrs: nounwind uwtable
define hidden i64 @_mi_clock_start() #0 {
  %1 = alloca i64, align 8
  %2 = load i64, ptr @mi_clock_diff, align 8, !tbaa !8
  %3 = sitofp i64 %2 to double
  %4 = fcmp oeq double %3, 0.000000e+00
  br i1 %4, label %5, label %10

5:                                                ; preds = %0
  call void @llvm.lifetime.start.p0(i64 8, ptr %1) #7
  %6 = call i64 @_mi_clock_now() #6
  store i64 %6, ptr %1, align 8, !tbaa !8
  %7 = call i64 @_mi_clock_now() #6
  %8 = load i64, ptr %1, align 8, !tbaa !8
  %9 = sub nsw i64 %7, %8
  store i64 %9, ptr @mi_clock_diff, align 8, !tbaa !8
  call void @llvm.lifetime.end.p0(i64 8, ptr %1) #7
  br label %10

10:                                               ; preds = %5, %0
  %11 = call i64 @_mi_clock_now() #6
  ret i64 %11
}

; Function Attrs: nounwind uwtable
define internal ptr @mi_stats_get_default() #0 {
  %1 = alloca ptr, align 8
  call void @llvm.lifetime.start.p0(i64 8, ptr %1) #7
  %2 = call ptr @mi_heap_get_default() #6
  store ptr %2, ptr %1, align 8, !tbaa !25
  %3 = load ptr, ptr %1, align 8, !tbaa !25
  %4 = getelementptr inbounds nuw %struct.mi_heap_s, ptr %3, i32 0, i32 0
  %5 = load ptr, ptr %4, align 8, !tbaa !27
  %6 = getelementptr inbounds nuw %struct.mi_tld_s, ptr %5, i32 0, i32 5
  call void @llvm.lifetime.end.p0(i64 8, ptr %1) #7
  ret ptr %6
}

; Function Attrs: nounwind uwtable
define hidden void @mi_stats_reset() #0 {
  %1 = alloca ptr, align 8
  call void @llvm.lifetime.start.p0(i64 8, ptr %1) #7
  %2 = call ptr @mi_stats_get_default() #6
  store ptr %2, ptr %1, align 8, !tbaa !23
  %3 = load ptr, ptr %1, align 8, !tbaa !23
  %4 = icmp ne ptr %3, @_mi_stats_main
  br i1 %4, label %5, label %7

5:                                                ; preds = %0
  %6 = load ptr, ptr %1, align 8, !tbaa !23
  call void @llvm.memset.p0.i64(ptr align 8 %6, i8 0, i64 704, i1 false)
  br label %7

7:                                                ; preds = %5, %0
  call void @llvm.memset.p0.i64(ptr align 64 @_mi_stats_main, i8 0, i64 704, i1 false)
  %8 = load i64, ptr @mi_process_start, align 8, !tbaa !8
  %9 = icmp eq i64 %8, 0
  br i1 %9, label %10, label %12

10:                                               ; preds = %7
  %11 = call i64 @_mi_clock_start() #6
  store i64 %11, ptr @mi_process_start, align 8, !tbaa !8
  br label %12

12:                                               ; preds = %10, %7
  call void @llvm.lifetime.end.p0(i64 8, ptr %1) #7
  ret void
}