; Function Attrs: nounwind uwtable
define hidden void @mi_stats_reset() local_unnamed_addr #2 {
  %1 = tail call ptr @mi_heap_get_default() #8
  %2 = load ptr, ptr %1, align 8, !tbaa !17
  %3 = getelementptr inbounds nuw i8, ptr %2, i64 952
  %.not = icmp eq ptr %3, @_mi_stats_main
  br i1 %.not, label %5, label %4

4:                                                ; preds = %0
  tail call void @llvm.memset.p0.i64(ptr noundef nonnull align 8 dereferenceable(704) %3, i8 0, i64 704, i1 false)
  br label %5

5:                                                ; preds = %4, %0
  tail call void @llvm.memset.p0.i64(ptr noundef nonnull align 64 dereferenceable(704) @_mi_stats_main, i8 0, i64 704, i1 false)
  %6 = load i64, ptr @mi_process_start, align 8, !tbaa !25
  %7 = icmp eq i64 %6, 0
  br i1 %7, label %8, label %16

8:                                                ; preds = %5
  %9 = load i64, ptr @mi_clock_diff, align 8, !tbaa !25
  %10 = icmp eq i64 %9, 0
  br i1 %10, label %11, label %_mi_clock_start.exit

11:                                               ; preds = %8
  %12 = tail call i64 @_mi_prim_clock_now() #8
  %13 = tail call i64 @_mi_prim_clock_now() #8
  %14 = sub nsw i64 %13, %12
  store i64 %14, ptr @mi_clock_diff, align 8, !tbaa !25
  br label %_mi_clock_start.exit

_mi_clock_start.exit:                             ; preds = %8, %11
  %15 = tail call i64 @_mi_prim_clock_now() #8
  store i64 %15, ptr @mi_process_start, align 8, !tbaa !25
  br label %16

16:                                               ; preds = %_mi_clock_start.exit, %5
  ret void
}